; Function Attrs: mustprogress nofree norecurse nosync nounwind willreturn memory(read, inaccessiblemem: none) uwtable
define range(i32 0, 2) i32 @If_DsdManCheckDec(ptr noundef readonly captures(none) %0, i32 noundef %1) local_unnamed_addr #2 {
  %3 = ashr i32 %1, 1
  %4 = getelementptr i8, ptr %0, i64 48
  %.val = load ptr, ptr %4, align 8, !tbaa !23
  %5 = sext i32 %3 to i64
  %6 = getelementptr inbounds ptr, ptr %.val, i64 %5
  %7 = load ptr, ptr %6, align 8, !tbaa !24
  %8 = getelementptr inbounds nuw i8, ptr %7, i64 4
  %9 = load i32, ptr %8, align 4
  %10 = lshr i32 %9, 8
  %11 = and i32 %10, 1
  ret i32 %11
}